target datalayout = "e-m:e-p270:32:32-p271:32:32-p272:64:64-i64:64-i128:128-f80:128-n8:16:32:64-S128"
target triple = "x86_64-pc-linux-gnu"

%"class.cv::Scalar_" = type { %"class.cv::Vec" }
%"class.cv::Vec" = type { %"class.cv::Matx" }
%"class.cv::Matx" = type { [4 x double] }
%"class.cv::gapi::fluid::BorderHandler" = type <{ ptr, i32, [4 x i8] }>
%"class.cv::gapi::fluid::BorderHandlerT" = type { %"class.cv::gapi::fluid::BorderHandler.base", %"class.cv::Scalar_", %"class.cv::Mat" }
%"class.cv::gapi::fluid::BorderHandler.base" = type <{ ptr, i32 }>
%"class.cv::Mat" = type { i32, i32, i32, i32, ptr, ptr, ptr, ptr, ptr, ptr, %"struct.cv::MatSize", %"struct.cv::MatStep" }
%"struct.cv::MatSize" = type { ptr }
%"struct.cv::MatStep" = type { ptr, [2 x i64] }

; Function Attrs: inlinehint mustprogress nounwind uwtable
define linkonce_odr hidden noundef ptr @_ZNK2cv3Mat3ptrEii(ptr noundef nonnull align 8 dereferenceable(96) %0, i32 noundef %1, i32 noundef %2) #5 comdat align 2 {
  %4 = alloca ptr, align 8
  %5 = alloca i32, align 4
  %6 = alloca i32, align 4
  store ptr %0, ptr %4, align 8, !tbaa !35
  store i32 %1, ptr %5, align 4, !tbaa !20
  store i32 %2, ptr %6, align 4, !tbaa !20
  %7 = load ptr, ptr %4, align 8
  %8 = getelementptr inbounds nuw %"class.cv::Mat", ptr %7, i32 0, i32 4
  %9 = load ptr, ptr %8, align 8, !tbaa !37
  %10 = load i32, ptr %5, align 4, !tbaa !20
  %11 = sext i32 %10 to i64
  %12 = getelementptr inbounds nuw %"class.cv::Mat", ptr %7, i32 0, i32 11
  %13 = getelementptr inbounds nuw %"struct.cv::MatStep", ptr %12, i32 0, i32 0
  %14 = load ptr, ptr %13, align 8, !tbaa !45
  %15 = getelementptr inbounds i64, ptr %14, i64 0
  %16 = load i64, ptr %15, align 8, !tbaa !46
  %17 = mul i64 %11, %16
  %18 = getelementptr inbounds nuw i8, ptr %9, i64 %17
  %19 = load i32, ptr %6, align 4, !tbaa !20
  %20 = sext i32 %19 to i64
  %21 = getelementptr inbounds nuw %"class.cv::Mat", ptr %7, i32 0, i32 11
  %22 = getelementptr inbounds nuw %"struct.cv::MatStep", ptr %21, i32 0, i32 0
  %23 = load ptr, ptr %22, align 8, !tbaa !45
  %24 = getelementptr inbounds i64, ptr %23, i64 1
  %25 = load i64, ptr %24, align 8, !tbaa !46
  %26 = mul i64 %20, %25
  %27 = getelementptr inbounds nuw i8, ptr %18, i64 %26
  ret ptr %27
}

; Function Attrs: mustprogress uwtable
define hidden noundef ptr @_ZNK2cv4gapi5fluid14BorderHandlerTILi0EE7inLineBEiRKNS1_23BufferStorageWithBorderEi(ptr noundef nonnull align 8 dereferenceable(144) %0, i32 noundef %1, ptr noundef nonnull align 8 dereferenceable(112) %2, i32 noundef %3) unnamed_addr #4 align 2 {
  %5 = alloca ptr, align 8
  %6 = alloca i32, align 4
  %7 = alloca ptr, align 8
  %8 = alloca i32, align 4
  store ptr %0, ptr %5, align 8, !tbaa !31
  store i32 %1, ptr %6, align 4, !tbaa !20
  store ptr %2, ptr %7, align 8, !tbaa !33
  store i32 %3, ptr %8, align 4, !tbaa !20
  %9 = load ptr, ptr %5, align 8
  %10 = getelementptr inbounds nuw %"class.cv::gapi::fluid::BorderHandlerT", ptr %9, i32 0, i32 2
  %11 = getelementptr inbounds nuw %"class.cv::gapi::fluid::BorderHandler", ptr %9, i32 0, i32 1
  %12 = load i32, ptr %11, align 8, !tbaa !23
  %13 = call noundef ptr @_ZNK2cv3Mat3ptrEii(ptr noundef nonnull align 8 dereferenceable(96) %10, i32 noundef 0, i32 noundef %12)
  ret ptr %13
}