; Function Attrs: mustprogress nofree norecurse nosync nounwind willreturn memory(read, inaccessiblemem: none) uwtable
define hidden noundef ptr @_ZNK2cv4gapi5fluid14BorderHandlerTILi0EE7inLineBEiRKNS1_23BufferStorageWithBorderEi(ptr noundef nonnull readonly align 8 captures(none) dereferenceable(144) %0, i32 %1, ptr nonnull readnone align 8 captures(none) %2, i32 %3) unnamed_addr #7 align 2 {
  %5 = getelementptr inbounds nuw i8, ptr %0, i64 8
  %6 = load i32, ptr %5, align 8, !tbaa !22
  %7 = getelementptr inbounds nuw i8, ptr %0, i64 64
  %8 = load ptr, ptr %7, align 8, !tbaa !26
  %9 = getelementptr inbounds nuw i8, ptr %0, i64 120
  %10 = load ptr, ptr %9, align 8, !tbaa !34
  %11 = sext i32 %6 to i64
  %12 = getelementptr inbounds nuw i8, ptr %10, i64 8
  %13 = load i64, ptr %12, align 8, !tbaa !35
  %14 = mul i64 %13, %11
  %15 = getelementptr inbounds nuw i8, ptr %8, i64 %14
  ret ptr %15
}